target datalayout = "e-m:e-p270:32:32-p271:32:32-p272:64:64-i64:64-i128:128-f80:128-n8:16:32:64-S128"
target triple = "x86_64-pc-linux-gnu"

%struct.sockaddr = type { i16, [14 x i8] }
%struct.sockaddr_in6 = type { i16, i16, i32, %struct.in6_addr, i32 }
%struct.in6_addr = type { %union.anon.0 }
%union.anon.0 = type { [4 x i32] }
%struct.ifaddrs = type { ptr, ptr, i32, ptr, ptr, %union.anon.5, ptr }
%union.anon.5 = type { ptr }

; Function Attrs: nounwind uwtable
define internal i32 @uv__is_ipv6_link_local(ptr noundef %0) #0 {
  %2 = alloca i32, align 4
  %3 = alloca ptr, align 8
  %4 = alloca ptr, align 8
  %5 = alloca [2 x i8], align 1
  %6 = alloca i32, align 4
  store ptr %0, ptr %3, align 8
  call void @llvm.lifetime.start.p0(i64 8, ptr %4) #8
  call void @llvm.lifetime.start.p0(i64 2, ptr %5) #8
  %7 = load ptr, ptr %3, align 8
  %8 = getelementptr inbounds nuw %struct.sockaddr, ptr %7, i32 0, i32 0
  %9 = load i16, ptr %8, align 2
  %10 = zext i16 %9 to i32
  %11 = icmp ne i32 %10, 10
  br i1 %11, label %12, label %13

12:                                               ; preds = %1
  store i32 0, ptr %2, align 4
  store i32 1, ptr %6, align 4
  br label %30

13:                                               ; preds = %1
  %14 = load ptr, ptr %3, align 8
  store ptr %14, ptr %4, align 8
  %15 = getelementptr inbounds [2 x i8], ptr %5, i64 0, i64 0
  %16 = load ptr, ptr %4, align 8
  %17 = getelementptr inbounds nuw %struct.sockaddr_in6, ptr %16, i32 0, i32 3
  call void @llvm.memcpy.p0.p0.i64(ptr align 1 %15, ptr align 4 %17, i64 2, i1 false)
  %18 = getelementptr inbounds [2 x i8], ptr %5, i64 0, i64 0
  %19 = load i8, ptr %18, align 1
  %20 = zext i8 %19 to i32
  %21 = icmp eq i32 %20, 254
  br i1 %21, label %22, label %27

22:                                               ; preds = %13
  %23 = getelementptr inbounds [2 x i8], ptr %5, i64 0, i64 1
  %24 = load i8, ptr %23, align 1
  %25 = zext i8 %24 to i32
  %26 = icmp eq i32 %25, 128
  br label %27

27:                                               ; preds = %22, %13
  %28 = phi i1 [ false, %13 ], [ %26, %22 ]
  %29 = zext i1 %28 to i32
  store i32 %29, ptr %2, align 4
  store i32 1, ptr %6, align 4
  br label %30

30:                                               ; preds = %27, %12
  call void @llvm.lifetime.end.p0(i64 2, ptr %5) #8
  call void @llvm.lifetime.end.p0(i64 8, ptr %4) #8
  %31 = load i32, ptr %2, align 4
  ret i32 %31
}

; Function Attrs: nounwind uwtable
define internal i32 @uv__ipv6_link_local_scope_id() #0 {
  %1 = alloca i32, align 4
  %2 = alloca ptr, align 8
  %3 = alloca i32, align 4
  %4 = alloca ptr, align 8
  %5 = alloca ptr, align 8
  %6 = alloca i32, align 4
  call void @llvm.lifetime.start.p0(i64 8, ptr %2) #8
  call void @llvm.lifetime.start.p0(i64 4, ptr %3) #8
  call void @llvm.lifetime.start.p0(i64 8, ptr %4) #8
  call void @llvm.lifetime.start.p0(i64 8, ptr %5) #8
  %7 = call i32 @getifaddrs(ptr noundef %4) #8
  %8 = icmp ne i32 %7, 0
  br i1 %8, label %9, label %10

9:                                                ; preds = %0
  store i32 0, ptr %1, align 4
  store i32 1, ptr %6, align 4
  br label %46

10:                                               ; preds = %0
  %11 = load ptr, ptr %4, align 8
  store ptr %11, ptr %5, align 8
  br label %12

12:                                               ; preds = %29, %10
  %13 = load ptr, ptr %5, align 8
  %14 = icmp ne ptr %13, null
  br i1 %14, label %15, label %33

15:                                               ; preds = %12
  %16 = load ptr, ptr %5, align 8
  %17 = getelementptr inbounds nuw %struct.ifaddrs, ptr %16, i32 0, i32 3
  %18 = load ptr, ptr %17, align 8
  %19 = icmp ne ptr %18, null
  br i1 %19, label %20, label %28

20:                                               ; preds = %15
  %21 = load ptr, ptr %5, align 8
  %22 = getelementptr inbounds nuw %struct.ifaddrs, ptr %21, i32 0, i32 3
  %23 = load ptr, ptr %22, align 8
  %24 = call i32 @uv__is_ipv6_link_local(ptr noundef %23)
  %25 = icmp ne i32 %24, 0
  br i1 %25, label %26, label %27

26:                                               ; preds = %20
  br label %33

27:                                               ; preds = %20
  br label %28

28:                                               ; preds = %27, %15
  br label %29

29:                                               ; preds = %28
  %30 = load ptr, ptr %5, align 8
  %31 = getelementptr inbounds nuw %struct.ifaddrs, ptr %30, i32 0, i32 0
  %32 = load ptr, ptr %31, align 8
  store ptr %32, ptr %5, align 8
  br label %12

33:                                               ; preds = %26, %12
  store i32 0, ptr %3, align 4
  %34 = load ptr, ptr %5, align 8
  %35 = icmp ne ptr %34, null
  br i1 %35, label %36, label %43

36:                                               ; preds = %33
  %37 = load ptr, ptr %5, align 8
  %38 = getelementptr inbounds nuw %struct.ifaddrs, ptr %37, i32 0, i32 3
  %39 = load ptr, ptr %38, align 8
  store ptr %39, ptr %2, align 8
  %40 = load ptr, ptr %2, align 8
  %41 = getelementptr inbounds nuw %struct.sockaddr_in6, ptr %40, i32 0, i32 4
  %42 = load i32, ptr %41, align 4
  store i32 %42, ptr %3, align 4
  br label %43

43:                                               ; preds = %36, %33
  %44 = load ptr, ptr %4, align 8
  call void @freeifaddrs(ptr noundef %44) #8
  %45 = load i32, ptr %3, align 4
  store i32 %45, ptr %1, align 4
  store i32 1, ptr %6, align 4
  br label %46

46:                                               ; preds = %43, %9
  call void @llvm.lifetime.end.p0(i64 8, ptr %5) #8
  call void @llvm.lifetime.end.p0(i64 8, ptr %4) #8
  call void @llvm.lifetime.end.p0(i64 4, ptr %3) #8
  call void @llvm.lifetime.end.p0(i64 8, ptr %2) #8
  %47 = load i32, ptr %1, align 4
  ret i32 %47
}