; Function Attrs: nounwind uwtable
define internal fastcc i32 @uv__ipv6_link_local_scope_id() unnamed_addr #0 {
  %1 = alloca ptr, align 8
  call void @llvm.lifetime.start.p0(i64 8, ptr nonnull %1) #7
  %2 = call i32 @getifaddrs(ptr noundef nonnull %1) #7
  %.not = icmp eq i32 %2, 0
  br i1 %.not, label %.preheader, label %13

.preheader:                                       ; preds = %0
  %.019 = load ptr, ptr %1, align 8
  %.not1120 = icmp eq ptr %.019, null
  br i1 %.not1120, label %.critedge, label %.lr.ph

.lr.ph:                                           ; preds = %.preheader, %uv__is_ipv6_link_local.exit.thread
  %.021 = phi ptr [ %.0, %uv__is_ipv6_link_local.exit.thread ], [ %.019, %.preheader ]
  %3 = getelementptr inbounds nuw i8, ptr %.021, i64 24
  %4 = load ptr, ptr %3, align 8
  %.not12 = icmp eq ptr %4, null
  br i1 %.not12, label %uv__is_ipv6_link_local.exit.thread, label %5

5:                                                ; preds = %.lr.ph
  %6 = load i16, ptr %4, align 2
  %.not.i = icmp eq i16 %6, 10
  br i1 %.not.i, label %uv__is_ipv6_link_local.exit, label %uv__is_ipv6_link_local.exit.thread

uv__is_ipv6_link_local.exit:                      ; preds = %5
  %7 = getelementptr inbounds nuw i8, ptr %4, i64 8
  %.sroa.0.0.copyload.i = load i8, ptr %7, align 4
  %.sroa.4.0..sroa_idx.i = getelementptr inbounds nuw i8, ptr %4, i64 9
  %.sroa.4.0.copyload.i = load i8, ptr %.sroa.4.0..sroa_idx.i, align 1
  %8 = icmp ne i8 %.sroa.0.0.copyload.i, -2
  %9 = icmp ne i8 %.sroa.4.0.copyload.i, -128
  %.not18 = select i1 %8, i1 true, i1 %9
  br i1 %.not18, label %uv__is_ipv6_link_local.exit.thread, label %10

uv__is_ipv6_link_local.exit.thread:               ; preds = %5, %.lr.ph, %uv__is_ipv6_link_local.exit
  %.0 = load ptr, ptr %.021, align 8
  %.not11 = icmp eq ptr %.0, null
  br i1 %.not11, label %.critedge, label %.lr.ph

10:                                               ; preds = %uv__is_ipv6_link_local.exit
  %11 = getelementptr inbounds nuw i8, ptr %4, i64 24
  %12 = load i32, ptr %11, align 4
  br label %.critedge

.critedge:                                        ; preds = %uv__is_ipv6_link_local.exit.thread, %.preheader, %10
  %.08 = phi i32 [ %12, %10 ], [ 0, %.preheader ], [ 0, %uv__is_ipv6_link_local.exit.thread ]
  call void @freeifaddrs(ptr noundef %.019) #7
  br label %13

13:                                               ; preds = %0, %.critedge
  %.09 = phi i32 [ %.08, %.critedge ], [ 0, %0 ]
  call void @llvm.lifetime.end.p0(i64 8, ptr nonnull %1) #7
  ret i32 %.09
}